target datalayout = "e-m:e-p270:32:32-p271:32:32-p272:64:64-i64:64-i128:128-f80:128-n8:16:32:64-S128"
target triple = "x86_64-pc-linux-gnu"

%struct.gf_s = type { [8 x i64] }

; Function Attrs: alwaysinline nounwind uwtable
define internal void @gf_weak_reduce(ptr noundef %0) #2 {
  %2 = alloca ptr, align 8
  %3 = alloca i64, align 8
  %4 = alloca i64, align 8
  %5 = alloca i32, align 4
  store ptr %0, ptr %2, align 8, !tbaa !8
  call void @llvm.lifetime.start.p0(i64 8, ptr %3) #6
  store i64 72057594037927935, ptr %3, align 8, !tbaa !14
  call void @llvm.lifetime.start.p0(i64 8, ptr %4) #6
  %6 = load ptr, ptr %2, align 8, !tbaa !8
  %7 = getelementptr inbounds nuw %struct.gf_s, ptr %6, i32 0, i32 0
  %8 = getelementptr inbounds nuw [8 x i64], ptr %7, i64 0, i64 7
  %9 = load i64, ptr %8, align 8, !tbaa !14
  %10 = lshr i64 %9, 56
  store i64 %10, ptr %4, align 8, !tbaa !14
  call void @llvm.lifetime.start.p0(i64 4, ptr %5) #6
  %11 = load i64, ptr %4, align 8, !tbaa !14
  %12 = load ptr, ptr %2, align 8, !tbaa !8
  %13 = getelementptr inbounds nuw %struct.gf_s, ptr %12, i32 0, i32 0
  %14 = getelementptr inbounds nuw [8 x i64], ptr %13, i64 0, i64 4
  %15 = load i64, ptr %14, align 16, !tbaa !14
  %16 = add i64 %15, %11
  store i64 %16, ptr %14, align 16, !tbaa !14
  store i32 7, ptr %5, align 4, !tbaa !10
  br label %17

17:                                               ; preds = %43, %1
  %18 = load i32, ptr %5, align 4, !tbaa !10
  %19 = icmp ugt i32 %18, 0
  br i1 %19, label %20, label %46

20:                                               ; preds = %17
  %21 = load ptr, ptr %2, align 8, !tbaa !8
  %22 = getelementptr inbounds nuw %struct.gf_s, ptr %21, i32 0, i32 0
  %23 = load i32, ptr %5, align 4, !tbaa !10
  %24 = zext i32 %23 to i64
  %25 = getelementptr inbounds nuw [8 x i64], ptr %22, i64 0, i64 %24
  %26 = load i64, ptr %25, align 8, !tbaa !14
  %27 = load i64, ptr %3, align 8, !tbaa !14
  %28 = and i64 %26, %27
  %29 = load ptr, ptr %2, align 8, !tbaa !8
  %30 = getelementptr inbounds nuw %struct.gf_s, ptr %29, i32 0, i32 0
  %31 = load i32, ptr %5, align 4, !tbaa !10
  %32 = sub i32 %31, 1
  %33 = zext i32 %32 to i64
  %34 = getelementptr inbounds nuw [8 x i64], ptr %30, i64 0, i64 %33
  %35 = load i64, ptr %34, align 8, !tbaa !14
  %36 = lshr i64 %35, 56
  %37 = add i64 %28, %36
  %38 = load ptr, ptr %2, align 8, !tbaa !8
  %39 = getelementptr inbounds nuw %struct.gf_s, ptr %38, i32 0, i32 0
  %40 = load i32, ptr %5, align 4, !tbaa !10
  %41 = zext i32 %40 to i64
  %42 = getelementptr inbounds nuw [8 x i64], ptr %39, i64 0, i64 %41
  store i64 %37, ptr %42, align 8, !tbaa !14
  br label %43

43:                                               ; preds = %20
  %44 = load i32, ptr %5, align 4, !tbaa !10
  %45 = add i32 %44, -1
  store i32 %45, ptr %5, align 4, !tbaa !10
  br label %17, !llvm.loop !24

46:                                               ; preds = %17
  %47 = load ptr, ptr %2, align 8, !tbaa !8
  %48 = getelementptr inbounds nuw %struct.gf_s, ptr %47, i32 0, i32 0
  %49 = getelementptr inbounds [8 x i64], ptr %48, i64 0, i64 0
  %50 = load i64, ptr %49, align 16, !tbaa !14
  %51 = load i64, ptr %3, align 8, !tbaa !14
  %52 = and i64 %50, %51
  %53 = load i64, ptr %4, align 8, !tbaa !14
  %54 = add i64 %52, %53
  %55 = load ptr, ptr %2, align 8, !tbaa !8
  %56 = getelementptr inbounds nuw %struct.gf_s, ptr %55, i32 0, i32 0
  %57 = getelementptr inbounds [8 x i64], ptr %56, i64 0, i64 0
  store i64 %54, ptr %57, align 16, !tbaa !14
  call void @llvm.lifetime.end.p0(i64 4, ptr %5) #6
  call void @llvm.lifetime.end.p0(i64 8, ptr %4) #6
  call void @llvm.lifetime.end.p0(i64 8, ptr %3) #6
  ret void
}

; Function Attrs: alwaysinline nounwind uwtable
define internal void @gf_bias(ptr noundef %0, i32 noundef %1) #2 {
  %3 = alloca ptr, align 8
  %4 = alloca i32, align 4
  store ptr %0, ptr %3, align 8, !tbaa !8
  store i32 %1, ptr %4, align 4, !tbaa !10
  ret void
}

; Function Attrs: alwaysinline nounwind uwtable
define internal void @gf_sub_RAW(ptr noundef %0, ptr noundef %1, ptr noundef %2) #2 {
  %4 = alloca ptr, align 8
  %5 = alloca ptr, align 8
  %6 = alloca ptr, align 8
  %7 = alloca i64, align 8
  %8 = alloca i64, align 8
  %9 = alloca i32, align 4
  store ptr %0, ptr %4, align 8, !tbaa !8
  store ptr %1, ptr %5, align 8, !tbaa !8
  store ptr %2, ptr %6, align 8, !tbaa !8
  call void @llvm.lifetime.start.p0(i64 8, ptr %7) #6
  store i64 144115188075855870, ptr %7, align 8, !tbaa !14
  call void @llvm.lifetime.start.p0(i64 8, ptr %8) #6
  %10 = load i64, ptr %7, align 8, !tbaa !14
  %11 = sub i64 %10, 2
  store i64 %11, ptr %8, align 8, !tbaa !14
  call void @llvm.lifetime.start.p0(i64 4, ptr %9) #6
  store i32 0, ptr %9, align 4, !tbaa !10
  br label %12

12:                                               ; preds = %45, %3
  %13 = load i32, ptr %9, align 4, !tbaa !10
  %14 = zext i32 %13 to i64
  %15 = icmp ult i64 %14, 8
  br i1 %15, label %16, label %48

16:                                               ; preds = %12
  %17 = load ptr, ptr %5, align 8, !tbaa !8
  %18 = getelementptr inbounds nuw %struct.gf_s, ptr %17, i32 0, i32 0
  %19 = load i32, ptr %9, align 4, !tbaa !10
  %20 = zext i32 %19 to i64
  %21 = getelementptr inbounds nuw [8 x i64], ptr %18, i64 0, i64 %20
  %22 = load i64, ptr %21, align 8, !tbaa !14
  %23 = load ptr, ptr %6, align 8, !tbaa !8
  %24 = getelementptr inbounds nuw %struct.gf_s, ptr %23, i32 0, i32 0
  %25 = load i32, ptr %9, align 4, !tbaa !10
  %26 = zext i32 %25 to i64
  %27 = getelementptr inbounds nuw [8 x i64], ptr %24, i64 0, i64 %26
  %28 = load i64, ptr %27, align 8, !tbaa !14
  %29 = sub i64 %22, %28
  %30 = load i32, ptr %9, align 4, !tbaa !10
  %31 = zext i32 %30 to i64
  %32 = icmp eq i64 %31, 4
  br i1 %32, label %33, label %35

33:                                               ; preds = %16
  %34 = load i64, ptr %8, align 8, !tbaa !14
  br label %37

35:                                               ; preds = %16
  %36 = load i64, ptr %7, align 8, !tbaa !14
  br label %37

37:                                               ; preds = %35, %33
  %38 = phi i64 [ %34, %33 ], [ %36, %35 ]
  %39 = add i64 %29, %38
  %40 = load ptr, ptr %4, align 8, !tbaa !8
  %41 = getelementptr inbounds nuw %struct.gf_s, ptr %40, i32 0, i32 0
  %42 = load i32, ptr %9, align 4, !tbaa !10
  %43 = zext i32 %42 to i64
  %44 = getelementptr inbounds nuw [8 x i64], ptr %41, i64 0, i64 %43
  store i64 %39, ptr %44, align 8, !tbaa !14
  br label %45

45:                                               ; preds = %37
  %46 = load i32, ptr %9, align 4, !tbaa !10
  %47 = add i32 %46, 1
  store i32 %47, ptr %9, align 4, !tbaa !10
  br label %12, !llvm.loop !25

48:                                               ; preds = %12
  %49 = load ptr, ptr %4, align 8, !tbaa !8
  call void @gf_weak_reduce(ptr noundef %49)
  call void @llvm.lifetime.end.p0(i64 4, ptr %9) #6
  call void @llvm.lifetime.end.p0(i64 8, ptr %8) #6
  call void @llvm.lifetime.end.p0(i64 8, ptr %7) #6
  ret void
}

; Function Attrs: nounwind uwtable
define void @gf_sub(ptr noundef %0, ptr noundef %1, ptr noundef %2) #0 {
  %4 = alloca ptr, align 8
  %5 = alloca ptr, align 8
  %6 = alloca ptr, align 8
  store ptr %0, ptr %4, align 8, !tbaa !8
  store ptr %1, ptr %5, align 8, !tbaa !8
  store ptr %2, ptr %6, align 8, !tbaa !8
  %7 = load ptr, ptr %4, align 8, !tbaa !8
  %8 = load ptr, ptr %5, align 8, !tbaa !8
  %9 = load ptr, ptr %6, align 8, !tbaa !8
  call void @gf_sub_RAW(ptr noundef %7, ptr noundef %8, ptr noundef %9)
  %10 = load ptr, ptr %4, align 8, !tbaa !8
  call void @gf_bias(ptr noundef %10, i32 noundef 2)
  %11 = load ptr, ptr %4, align 8, !tbaa !8
  call void @gf_weak_reduce(ptr noundef %11)
  ret void
}