; Function Attrs: nofree norecurse nosync nounwind memory(argmem: readwrite) uwtable
define void @gf_sub(ptr noundef captures(none) %0, ptr noundef readonly captures(none) %1, ptr noundef readonly captures(none) %2) local_unnamed_addr #0 {
  br label %4

4:                                                ; preds = %3, %4
  %indvars.iv = phi i64 [ 0, %3 ], [ %indvars.iv.next, %4 ]
  %5 = getelementptr inbounds nuw [8 x i64], ptr %1, i64 0, i64 %indvars.iv
  %6 = load i64, ptr %5, align 8, !tbaa !7
  %7 = getelementptr inbounds nuw [8 x i64], ptr %2, i64 0, i64 %indvars.iv
  %8 = load i64, ptr %7, align 8, !tbaa !7
  %9 = icmp eq i64 %indvars.iv, 4
  %10 = select i1 %9, i64 144115188075855868, i64 144115188075855870
  %11 = add i64 %6, %10
  %12 = sub i64 %11, %8
  %13 = getelementptr inbounds nuw [8 x i64], ptr %0, i64 0, i64 %indvars.iv
  store i64 %12, ptr %13, align 8, !tbaa !7
  %indvars.iv.next = add nuw nsw i64 %indvars.iv, 1
  %exitcond.not = icmp eq i64 %indvars.iv.next, 8
  br i1 %exitcond.not, label %14, label %4, !llvm.loop !17

14:                                               ; preds = %4
  %15 = getelementptr inbounds nuw i8, ptr %0, i64 56
  %16 = load i64, ptr %15, align 8, !tbaa !7
  %17 = lshr i64 %16, 56
  %18 = getelementptr inbounds nuw i8, ptr %0, i64 32
  %19 = load i64, ptr %18, align 16, !tbaa !7
  %20 = add i64 %19, %17
  store i64 %20, ptr %18, align 16, !tbaa !7
  br label %21

21:                                               ; preds = %14, %21
  %22 = phi i64 [ %16, %14 ], [ %26, %21 ]
  %indvars.iv10 = phi i64 [ 7, %14 ], [ %indvars.iv.next11, %21 ]
  %23 = getelementptr inbounds nuw [8 x i64], ptr %0, i64 0, i64 %indvars.iv10
  %24 = and i64 %22, 72057594037927935
  %indvars.iv.next11 = add nsw i64 %indvars.iv10, -1
  %25 = getelementptr inbounds nuw [8 x i64], ptr %0, i64 0, i64 %indvars.iv.next11
  %26 = load i64, ptr %25, align 8, !tbaa !7
  %27 = lshr i64 %26, 56
  %28 = add nuw nsw i64 %27, %24
  store i64 %28, ptr %23, align 8, !tbaa !7
  %.not.i.i = icmp eq i64 %indvars.iv.next11, 0
  br i1 %.not.i.i, label %gf_sub_RAW.exit, label %21, !llvm.loop !9

gf_sub_RAW.exit:                                  ; preds = %21
  %29 = load i64, ptr %0, align 16, !tbaa !7
  %30 = and i64 %29, 72057594037927935
  %31 = add nuw nsw i64 %30, %17
  store i64 %31, ptr %0, align 16, !tbaa !7
  %32 = load i64, ptr %15, align 8, !tbaa !7
  %33 = lshr i64 %32, 56
  %34 = load i64, ptr %18, align 16, !tbaa !7
  %35 = add i64 %34, %33
  store i64 %35, ptr %18, align 16, !tbaa !7
  br label %36

36:                                               ; preds = %gf_sub_RAW.exit, %36
  %37 = phi i64 [ %32, %gf_sub_RAW.exit ], [ %41, %36 ]
  %indvars.iv13 = phi i64 [ 7, %gf_sub_RAW.exit ], [ %indvars.iv.next14, %36 ]
  %38 = getelementptr inbounds nuw [8 x i64], ptr %0, i64 0, i64 %indvars.iv13
  %39 = and i64 %37, 72057594037927935
  %indvars.iv.next14 = add nsw i64 %indvars.iv13, -1
  %40 = getelementptr inbounds nuw [8 x i64], ptr %0, i64 0, i64 %indvars.iv.next14
  %41 = load i64, ptr %40, align 8, !tbaa !7
  %42 = lshr i64 %41, 56
  %43 = add nuw nsw i64 %42, %39
  store i64 %43, ptr %38, align 8, !tbaa !7
  %.not.i = icmp eq i64 %indvars.iv.next14, 0
  br i1 %.not.i, label %gf_weak_reduce.exit, label %36, !llvm.loop !9

gf_weak_reduce.exit:                              ; preds = %36
  %44 = and i64 %31, 72057594037927935
  %45 = add nuw nsw i64 %44, %33
  store i64 %45, ptr %0, align 16, !tbaa !7
  ret void
}